; Function Attrs: nofree norecurse nosync nounwind memory(argmem: readwrite) uwtable
define i32 @HIST_count_simple(ptr noundef captures(none) %0, ptr noundef captures(none) %1, ptr noundef readonly captures(address) %2, i64 noundef %3) local_unnamed_addr #1 {
  %5 = getelementptr inbounds nuw i8, ptr %2, i64 %3
  %6 = load i32, ptr %1, align 4, !tbaa !6
  %7 = add i32 %6, 1
  %8 = zext i32 %7 to i64
  %9 = shl nuw nsw i64 %8, 2
  tail call void @llvm.memset.p0.i64(ptr align 4 %0, i8 0, i64 %9, i1 false)
  %10 = icmp eq i64 %3, 0
  br i1 %10, label %11, label %.lr.ph

11:                                               ; preds = %4
  store i32 0, ptr %1, align 4, !tbaa !6
  br label %.loopexit

.lr.ph:                                           ; preds = %4, %.lr.ph
  %.02933 = phi ptr [ %12, %.lr.ph ], [ %2, %4 ]
  %12 = getelementptr inbounds nuw i8, ptr %.02933, i64 1
  %13 = load i8, ptr %.02933, align 1, !tbaa !3
  %14 = zext i8 %13 to i64
  %15 = getelementptr inbounds nuw i32, ptr %0, i64 %14
  %16 = load i32, ptr %15, align 4, !tbaa !6
  %17 = add i32 %16, 1
  store i32 %17, ptr %15, align 4, !tbaa !6
  %18 = icmp ult ptr %12, %5
  br i1 %18, label %.lr.ph, label %.preheader, !llvm.loop !10

.preheader:                                       ; preds = %.lr.ph, %.preheader
  %.027 = phi i32 [ %22, %.preheader ], [ %6, %.lr.ph ]
  %19 = zext i32 %.027 to i64
  %20 = getelementptr inbounds nuw i32, ptr %0, i64 %19
  %21 = load i32, ptr %20, align 4, !tbaa !6
  %.not = icmp eq i32 %21, 0
  %22 = add i32 %.027, -1
  br i1 %.not, label %.preheader, label %23, !llvm.loop !11

23:                                               ; preds = %.preheader
  store i32 %.027, ptr %1, align 4, !tbaa !6
  br label %24

24:                                               ; preds = %23, %24
  %indvars.iv = phi i64 [ 0, %23 ], [ %indvars.iv.next, %24 ]
  %.02634 = phi i32 [ 0, %23 ], [ %spec.select, %24 ]
  %25 = getelementptr inbounds nuw i32, ptr %0, i64 %indvars.iv
  %26 = load i32, ptr %25, align 4, !tbaa !6
  %spec.select = tail call i32 @llvm.umax.i32(i32 %26, i32 %.02634)
  %indvars.iv.next = add nuw nsw i64 %indvars.iv, 1
  %.not31.not = icmp samesign ult i64 %indvars.iv, %19
  br i1 %.not31.not, label %24, label %.loopexit, !llvm.loop !12

.loopexit:                                        ; preds = %24, %11
  %.028 = phi i32 [ 0, %11 ], [ %spec.select, %24 ]
  ret i32 %.028
}